; Function Attrs: mustprogress nofree nosync memory(readwrite, inaccessiblemem: none) uwtable
define internal fastcc noundef zeroext i1 @_ZN4absl18debugging_internalL18ParseClassEnumTypeEPNS0_5StateE(ptr noundef captures(none) %0) unnamed_addr #6 personality ptr @__gxx_personality_v0 {
  %2 = alloca %"struct.absl::debugging_internal::ParseState", align 4
  %3 = getelementptr inbounds nuw i8, ptr %0, i64 20
  %4 = load i32, ptr %3, align 4, !tbaa !17
  %5 = add nsw i32 %4, 1
  store i32 %5, ptr %3, align 4, !tbaa !17
  %6 = getelementptr inbounds nuw i8, ptr %0, i64 24
  %7 = load i32, ptr %6, align 8, !tbaa !15
  %8 = add nsw i32 %7, 1
  store i32 %8, ptr %6, align 8, !tbaa !15
  %9 = icmp sgt i32 %4, 255
  %10 = icmp sgt i32 %7, 131071
  %or.cond = select i1 %9, i1 true, i1 %10
  br i1 %or.cond, label %_ZNK4absl18debugging_internal12_GLOBAL__N_115ComplexityGuard12IsTooComplexEv.exit.thread, label %11

11:                                               ; preds = %1
  call void @llvm.lifetime.start.p0(i64 16, ptr nonnull %2)
  %12 = getelementptr inbounds nuw i8, ptr %0, i64 28
  call void @llvm.memcpy.p0.p0.i64(ptr noundef nonnull align 4 dereferenceable(16) %2, ptr noundef nonnull align 4 dereferenceable(16) %12, i64 16, i1 false), !tbaa.struct !31
  %13 = add nsw i32 %4, 2
  store i32 %13, ptr %3, align 4, !tbaa !17
  %14 = add nsw i32 %7, 2
  store i32 %14, ptr %6, align 8, !tbaa !15
  %15 = icmp sgt i32 %4, 254
  %16 = icmp sgt i32 %7, 131070
  %or.cond.i = select i1 %15, i1 true, i1 %16
  br i1 %or.cond.i, label %26, label %17

17:                                               ; preds = %11
  %.val11.i = load ptr, ptr %0, align 8, !tbaa !7
  %.val12.i = load i32, ptr %12, align 4, !tbaa !16
  %18 = sext i32 %.val12.i to i64
  %19 = getelementptr inbounds i8, ptr %.val11.i, i64 %18
  %20 = load i8, ptr %19, align 1, !tbaa !4
  %21 = icmp eq i8 %20, 84
  br i1 %21, label %22, label %26

22:                                               ; preds = %17
  %23 = getelementptr inbounds nuw i8, ptr %19, i64 1
  %24 = load i8, ptr %23, align 1, !tbaa !4
  %25 = icmp eq i8 %24, 115
  br i1 %25, label %_ZN4absl18debugging_internalL17ParseTwoCharTokenEPNS0_5StateEPKc.exit21.sink.split, label %26

26:                                               ; preds = %22, %17, %11
  store i32 %13, ptr %3, align 4, !tbaa !17
  %27 = add nsw i32 %7, 3
  store i32 %27, ptr %6, align 8, !tbaa !15
  %28 = icmp sgt i32 %7, 131069
  %or.cond.i12 = select i1 %15, i1 true, i1 %28
  br i1 %or.cond.i12, label %38, label %29

29:                                               ; preds = %26
  %.val11.i13 = load ptr, ptr %0, align 8, !tbaa !7
  %.val12.i14 = load i32, ptr %12, align 4, !tbaa !16
  %30 = sext i32 %.val12.i14 to i64
  %31 = getelementptr inbounds i8, ptr %.val11.i13, i64 %30
  %32 = load i8, ptr %31, align 1, !tbaa !4
  %33 = icmp eq i8 %32, 84
  br i1 %33, label %34, label %38

34:                                               ; preds = %29
  %35 = getelementptr inbounds nuw i8, ptr %31, i64 1
  %36 = load i8, ptr %35, align 1, !tbaa !4
  %37 = icmp eq i8 %36, 117
  br i1 %37, label %_ZN4absl18debugging_internalL17ParseTwoCharTokenEPNS0_5StateEPKc.exit21.sink.split, label %38

38:                                               ; preds = %34, %29, %26
  store i32 %13, ptr %3, align 4, !tbaa !17
  %39 = add nsw i32 %7, 4
  store i32 %39, ptr %6, align 8, !tbaa !15
  %40 = icmp sgt i32 %7, 131068
  %or.cond.i17 = select i1 %15, i1 true, i1 %40
  br i1 %or.cond.i17, label %_ZN4absl18debugging_internalL17ParseTwoCharTokenEPNS0_5StateEPKc.exit21, label %41

41:                                               ; preds = %38
  %.val11.i18 = load ptr, ptr %0, align 8, !tbaa !7
  %.val12.i19 = load i32, ptr %12, align 4, !tbaa !16
  %42 = sext i32 %.val12.i19 to i64
  %43 = getelementptr inbounds i8, ptr %.val11.i18, i64 %42
  %44 = load i8, ptr %43, align 1, !tbaa !4
  %45 = icmp eq i8 %44, 84
  br i1 %45, label %46, label %_ZN4absl18debugging_internalL17ParseTwoCharTokenEPNS0_5StateEPKc.exit21

46:                                               ; preds = %41
  %47 = getelementptr inbounds nuw i8, ptr %43, i64 1
  %48 = load i8, ptr %47, align 1, !tbaa !4
  %49 = icmp eq i8 %48, 101
  br i1 %49, label %_ZN4absl18debugging_internalL17ParseTwoCharTokenEPNS0_5StateEPKc.exit21.sink.split, label %_ZN4absl18debugging_internalL17ParseTwoCharTokenEPNS0_5StateEPKc.exit21

_ZN4absl18debugging_internalL17ParseTwoCharTokenEPNS0_5StateEPKc.exit21.sink.split: ; preds = %46, %34, %22
  %.val12.i19.sink = phi i32 [ %.val12.i, %22 ], [ %.val12.i14, %34 ], [ %.val12.i19, %46 ]
  %50 = add nsw i32 %.val12.i19.sink, 2
  store i32 %50, ptr %12, align 4, !tbaa !16
  br label %_ZN4absl18debugging_internalL17ParseTwoCharTokenEPNS0_5StateEPKc.exit21

_ZN4absl18debugging_internalL17ParseTwoCharTokenEPNS0_5StateEPKc.exit21: ; preds = %_ZN4absl18debugging_internalL17ParseTwoCharTokenEPNS0_5StateEPKc.exit21.sink.split, %46, %41, %38
  store i32 %5, ptr %3, align 4, !tbaa !17
  %51 = invoke fastcc noundef zeroext i1 @_ZN4absl18debugging_internalL9ParseNameEPNS0_5StateE(ptr noundef nonnull %0)
          to label %52 unwind label %53

52:                                               ; preds = %_ZN4absl18debugging_internalL17ParseTwoCharTokenEPNS0_5StateEPKc.exit21
  br i1 %51, label %58, label %57

53:                                               ; preds = %_ZN4absl18debugging_internalL17ParseTwoCharTokenEPNS0_5StateEPKc.exit21
  %54 = landingpad { ptr, i32 }
          cleanup
  call void @llvm.lifetime.end.p0(i64 16, ptr nonnull %2)
  %55 = load i32, ptr %3, align 4, !tbaa !17
  %56 = add nsw i32 %55, -1
  store i32 %56, ptr %3, align 4, !tbaa !17
  resume { ptr, i32 } %54

57:                                               ; preds = %52
  call void @llvm.memcpy.p0.p0.i64(ptr noundef nonnull align 4 dereferenceable(16) %12, ptr noundef nonnull align 4 dereferenceable(16) %2, i64 16, i1 false), !tbaa.struct !31
  br label %58

58:                                               ; preds = %52, %57
  call void @llvm.lifetime.end.p0(i64 16, ptr nonnull %2)
  %.pre = load i32, ptr %3, align 4, !tbaa !17
  %59 = add nsw i32 %.pre, -1
  br label %_ZNK4absl18debugging_internal12_GLOBAL__N_115ComplexityGuard12IsTooComplexEv.exit.thread

_ZNK4absl18debugging_internal12_GLOBAL__N_115ComplexityGuard12IsTooComplexEv.exit.thread: ; preds = %1, %58
  %60 = phi i32 [ %59, %58 ], [ %4, %1 ]
  %.0 = phi i1 [ %51, %58 ], [ false, %1 ]
  store i32 %60, ptr %3, align 4, !tbaa !17
  ret i1 %.0
}